(lp0
VMSFT
p1
aVAAPL
p2
aVAMZN
p3
aVFB
p4
aVBRK.B
p5
aVJNJ
p6
aVJPM
p7
aVGOOG
p8
aVGOOGL
p9
aVXOM
p10
aVV
p11
aVPG
p12
aVBAC
p13
aVCSCO
p14
aVDIS
p15
aVVZ
p16
aVPFE
p17
aVT
p18
aVCVX
p19
aVMA
p20
aVUNH
p21
aVHD
p22
aVINTC
p23
aVMRK
p24
aVCMCSA
p25
aVKO
p26
aVWFC
p27
aVBA
p28
aVPEP
p29
aVNFLX
p30
aVC
p31
aVMCD
p32
aVWMT
p33
aVORCL
p34
aVADBE
p35
aVABT
p36
aVPYPL
p37
aVPM
p38
aVUNP
p39
aVHON
p40
aVCRM
p41
aVIBM
p42
aVMDT
p43
aVAVGO
p44
aVABBV
p45
aVACN
p46
aVUTX
p47
aVCOST
p48
aVTMO
p49
aVNKE
p50
aVAMGN
p51
aVLIN
p52
aVTXN
p53
aVLLY
p54
aVQCOM
p55
aVMMM
p56
aVSBUX
p57
aVMO
p58
aVNVDA
p59
aVNEE
p60
aVAMT
p61
aVGE
p62
aVLOW
p63
aVGILD
p64
aVLMT
p65
aVDHR
p66
aVAXP
p67
aVBKNG
p68
aVUSB
p69
aVBMY
p70
aVMDLZ
p71
aVCAT
p72
aVCOP
p73
aVUPS
p74
aVADP
p75
aVDWDP
p76
aVGS
p77
aVANTM
p78
aVCVS
p79
aVCELG
p80
aVCB
p81
aVCHTR
p82
aVCME
p83
aVTJX
p84
aVINTU
p85
aVDUK
p86
aVCL
p87
aVBDX
p88
aVCSX
p89
aVD
p90
aVPNC
p91
aVCI
p92
aVMS
p93
aVSYK
p94
aVISRG
p95
aVSO
p96
aVSLB
p97
aVEOG
p98
aVNSC
p99
aVBLK
p100
aVSPG
p101
aVSPGI
p102
aVCCI
p103
aVBSX
p104
aVSCHW
p105
aVNOC
p106
aVRTN
p107
aVZTS
p108
aVGM
p109
aVPLD
p110
aVMMC
p111
aVEXC
p112
aVDE
p113
aVECL
p114
aVICE
p115
aVITW
p116
aVGD
p117
aVAPD
p118
aVAIG
p119
aVMET
p120
aVILMN
p121
aVPGR
p122
aVBIIB
p123
aVAGN
p124
aVKMB
p125
aVAON
p126
aVVRTX
p127
aVCOF
p128
aVFDX
p129
aVAEP
p130
aVWM
p131
aVWBA
p132
aVMU
p133
aVPRU
p134
aVEQIX
p135
aVBK
p136
aVEMR
p137
aVF
p138
aVOXY
p139
aVDOW
p140
aVKMI
p141
aVAMAT
p142
aVAFL
p143
aVTRV
p144
aVADSK
p145
aVFIS
p146
aVADI
p147
aVMAR
p148
aVPSX
p149
aVROP
p150
aVEL
p151
aVTGT
p152
aVAPC
p153
aVBBT
p154
aVEW
p155
aVBAX
p156
aVATVI
p157
aVVLO
p158
aVSRE
p159
aVJCI
p160
aVROST
p161
aVMPC
p162
aVSHW
p163
aVSYY
p164
aVSTZ
p165
aVDAL
p166
aVPSA
p167
aVFISV
p168
aVETN
p169
aVCTSH
p170
aVWMB
p171
aVHUM
p172
aVRHT
p173
aVHCA
p174
aVEBAY
p175
aVALL
p176
aVMCO
p177
aVDG
p178
aVTEL
p179
aVGIS
p180
aVYUM
p181
aVWELL
p182
aVPEG
p183
aVEA
p184
aVLRCX
p185
aVVFC
p186
aVIR
p187
aVXEL
p188
aVALXN
p189
aVHPQ
p190
aVEQR
p191
aVAVB
p192
aVORLY
p193
aVOKE
p194
aVTWTR
p195
aVHLT
p196
aVED
p197
aVPAYX
p198
aVAPH
p199
aVSTI
p200
aVPPG
p201
aVXLNX
p202
aVLUV
p203
aVPXD
p204
aVDFS
p205
aVWEC
p206
aVTROW
p207
aVMNST
p208
aVNEM
p209
aVLYB
p210
aVAZO
p211
aVDLR
p212
aVAMD
p213
aVPCAR
p214
aVTSN
p215
aVREGN
p216
aVZBH
p217
aVMSI
p218
aVMCK
p219
aVSBAC
p220
aVDLTR
p221
aVGLW
p222
aVALGN
p223
aVFTV
p224
aVGPN
p225
aVFLT
p226
aVCMI
p227
aVSTT
p228
aVES
p229
aVVRSK
p230
aVADM
p231
aVDTE
p232
aVVTR
p233
aVSYF
p234
aVWLTW
p235
aVCNC
p236
aVCXO
p237
aVMTB
p238
aVTDG
p239
aVHAL
p240
aVCERN
p241
aVPH
p242
aVA
p243
aVHRS
p244
aVRCL
p245
aVIDXX
p246
aVIQV
p247
aVCCL
p248
aVPPL
p249
aVBLL
p250
aVFE
p251
aVO
p252
aVSWK
p253
aVFITB
p254
aVINFO
p255
aVNTRS
p256
aVVRSN
p257
aVBXP
p258
aVKHC
p259
aVMCHP
p260
aVAWK
p261
aVHPE
p262
aVROK
p263
aVAME
p264
aVKR
p265
aVAMP
p266
aVEIX
p267
aVCDNS
p268
aVAPTV
p269
aVULTA
p270
aVHIG
p271
aVMKC
p272
aVCLX
p273
aVMSCI
p274
aVCTAS
p275
aVLLL
p276
aVESS
p277
aVUAL
p278
aVWY
p279
aVMTD
p280
aVFAST
p281
aVSNPS
p282
aVETR
p283
aVRSG
p284
aVIP
p285
aVCHD
p286
aVAEE
p287
aVKLAC
p288
aVHSY
p289
aVOMC
p290
aVCMG
p291
aVNUE
p292
aVNTAP
p293
aVFANG
p294
aVVMC
p295
aVKEY
p296
aVHES
p297
aVCBS
p298
aVFRC
p299
aVTSS
p300
aVLH
p301
aVARE
p302
aVCFG
p303
aVRMD
p304
aVBBY
p305
aVKEYS
p306
aVANSS
p307
aVCMS
p308
aVLEN
p309
aVDXC
p310
aVAJG
p311
aVFCX
p312
aVDHI
p313
aVMXIM
p314
aVWAT
p315
aVHCP
p316
aVRF
p317
aVCBRE
p318
aVEVRG
p319
aVCNP
p320
aVEFX
p321
aVDRI
p322
aVPFG
p323
aVCINF
p324
aVCOO
p325
aVK
p326
aVHST
p327
aVSJM
p328
aVL
p329
aVGPC
p330
aVBR
p331
aVDOV
p332
aVCAG
p333
aVTFX
p334
aVHBAN
p335
aVEXPE
p336
aVIT
p337
aVINCY
p338
aVDVN
p339
aVXYL
p340
aVIFF
p341
aVWCG
p342
aVMLM
p343
aVEXR
p344
aVMGM
p345
aVCAH
p346
aVCPRT
p347
aVKMX
p348
aVANET
p349
aVLNC
p350
aVMRO
p351
aVCE
p352
aVAAL
p353
aVSWKS
p354
aVWDC
p355
aVFOXA
p356
aVMAA
p357
aVDGX
p358
aVEXPD
p359
aVAKAM
p360
aVSYMC
p361
aVNCLH
p362
aVWYNN
p363
aVABC
p364
aVUDR
p365
aVKSU
p366
aVCTXS
p367
aVTSCO
p368
aVHOLX
p369
aVTTWO
p370
aVFTNT
p371
aVSIVB
p372
aVXRAY
p373
aVTXT
p374
aVVAR
p375
aVETFC
p376
aVCMA
p377
aVATO
p378
aVNBL
p379
aVGWW
p380
aVABMD
p381
aVBHGE
p382
aVSTX
p383
aVAPA
p384
aVVNO
p385
aVMAS
p386
aVCBOE
p387
aVAAP
p388
aVCOG
p389
aVCHRW
p390
aVHAS
p391
aVLNT
p392
aVREG
p393
aVDRE
p394
aVRJF
p395
aVAES
p396
aVTAP
p397
aVTIF
p398
aVHRL
p399
aVKSS
p400
aVPNW
p401
aVURI
p402
aVNI
p403
aVJKHY
p404
aVUHS
p405
aVNDAQ
p406
aVNRG
p407
aVMYL
p408
aVFMC
p409
aVBEN
p410
aVHSIC
p411
aVRE
p412
aVEMN
p413
aVCTL
p414
aVVIAB
p415
aVCF
p416
aVFTI
p417
aVLW
p418
aVPKI
p419
aVFRT
p420
aVALLE
p421
aVNOV
p422
aVGRMN
p423
aVWRK
p424
aVARNC
p425
aVDISCK
p426
aVSNA
p427
aVIRM
p428
aVTPR
p429
aVJEC
p430
aVWAB
p431
aVPKG
p432
aVTMK
p433
aVHII
p434
aVJNPR
p435
aVAVY
p436
aVZION
p437
aVMHK
p438
aVBF.B
p439
aVWU
p440
aVLKQ
p441
aVFFIV
p442
aVIPG
p443
aVQRVO
p444
aVPVH
p445
aVIVZ
p446
aVPHM
p447
aVNLSN
p448
aVJBHT
p449
aVWHR
p450
aVMOS
p451
aVDISH
p452
aVAIV
p453
aVALK
p454
aVUNM
p455
aVKIM
p456
aVBWA
p457
aVFBHS
p458
aVALB
p459
aVSLG
p460
aVCPB
p461
aVHFC
p462
aVXEC
p463
aVADS
p464
aVRHI
p465
aVFLIR
p466
aVSEE
p467
aVFLS
p468
aVXRX
p469
aVM
p470
aVAOS
p471
aVFL
p472
aVRL
p473
aVDVA
p474
aVHP
p475
aVPRGO
p476
aVCPRI
p477
aVHBI
p478
aVNWL
p479
aVPBCT
p480
aVPNR
p481
aVCOTY
p482
aVFOX
p483
aVHOG
p484
aVHRB
p485
aVROL
p486
aVNKTR
p487
aVPWR
p488
aVLB
p489
aVAIZ
p490
aVJEF
p491
aVLEG
p492
aVIPGP
p493
aVGPS
p494
aVAMG
p495
aVTRIP
p496
aVMAC
p497
aVNWSA
p498
aVDISCA
p499
aVJWN
p500
aVFLR
p501
aVUAA
p502
aVMAT
p503
aVUA
p504
aVNWS
p505
a.